target datalayout = "e-m:e-p270:32:32-p271:32:32-p272:64:64-i64:64-i128:128-f80:128-n8:16:32:64-S128"
target triple = "x86_64-pc-linux-gnu"

%struct.ref = type { ptr, %struct.object_id, %struct.object_id, %struct.object_id, ptr, ptr, i8, i32, i32, i32, ptr, ptr, ptr, [0 x i8] }
%struct.object_id = type { [32 x i8], i32 }

; Function Attrs: nounwind uwtable
define internal ptr @sort_ref_list__merge(ptr noundef %0, ptr noundef %1, ptr noundef %2) #0 {
  %4 = alloca ptr, align 8
  %5 = alloca ptr, align 8
  %6 = alloca ptr, align 8
  %7 = alloca ptr, align 8
  %8 = alloca ptr, align 8
  %9 = alloca i32, align 4
  %10 = alloca ptr, align 8
  %11 = alloca ptr, align 8
  %12 = alloca [8 x i8], align 1
  %13 = alloca ptr, align 8
  %14 = alloca ptr, align 8
  %15 = alloca [8 x i8], align 1
  store ptr %0, ptr %4, align 8, !tbaa !25
  store ptr %1, ptr %5, align 8, !tbaa !25
  store ptr %2, ptr %6, align 8, !tbaa !106
  call void @llvm.lifetime.start.p0(i64 8, ptr %7) #11
  %16 = load ptr, ptr %4, align 8, !tbaa !25
  store ptr %16, ptr %7, align 8, !tbaa !25
  call void @llvm.lifetime.start.p0(i64 8, ptr %8) #11
  call void @llvm.lifetime.start.p0(i64 4, ptr %9) #11
  %17 = load ptr, ptr %6, align 8, !tbaa !106
  %18 = load ptr, ptr %4, align 8, !tbaa !25
  %19 = load ptr, ptr %5, align 8, !tbaa !25
  %20 = call i32 %17(ptr noundef %18, ptr noundef %19)
  %21 = icmp sle i32 %20, 0
  %22 = zext i1 %21 to i32
  store i32 %22, ptr %9, align 4, !tbaa !19
  %23 = load i32, ptr %9, align 4, !tbaa !19
  %24 = icmp ne i32 %23, 0
  br i1 %24, label %36, label %25

25:                                               ; preds = %3
  %26 = load ptr, ptr %5, align 8, !tbaa !25
  store ptr %26, ptr %7, align 8, !tbaa !25
  br label %27

27:                                               ; preds = %25
  call void @llvm.lifetime.start.p0(i64 8, ptr %10) #11
  store ptr %4, ptr %10, align 8, !tbaa !106
  call void @llvm.lifetime.start.p0(i64 8, ptr %11) #11
  store ptr %5, ptr %11, align 8, !tbaa !106
  call void @llvm.lifetime.start.p0(i64 8, ptr %12) #11
  %28 = getelementptr inbounds [8 x i8], ptr %12, i64 0, i64 0
  %29 = load ptr, ptr %10, align 8, !tbaa !106
  call void @llvm.memcpy.p0.p0.i64(ptr align 1 %28, ptr align 1 %29, i64 8, i1 false)
  %30 = load ptr, ptr %10, align 8, !tbaa !106
  %31 = load ptr, ptr %11, align 8, !tbaa !106
  call void @llvm.memcpy.p0.p0.i64(ptr align 1 %30, ptr align 1 %31, i64 8, i1 false)
  %32 = load ptr, ptr %11, align 8, !tbaa !106
  %33 = getelementptr inbounds [8 x i8], ptr %12, i64 0, i64 0
  call void @llvm.memcpy.p0.p0.i64(ptr align 1 %32, ptr align 1 %33, i64 8, i1 false)
  call void @llvm.lifetime.end.p0(i64 8, ptr %12) #11
  call void @llvm.lifetime.end.p0(i64 8, ptr %11) #11
  call void @llvm.lifetime.end.p0(i64 8, ptr %10) #11
  br label %34

34:                                               ; preds = %27
  br label %35

35:                                               ; preds = %34
  br label %36

36:                                               ; preds = %35, %3
  br label %37

37:                                               ; preds = %69, %36
  br label %38

38:                                               ; preds = %49, %37
  %39 = load ptr, ptr %4, align 8, !tbaa !25
  store ptr %39, ptr %8, align 8, !tbaa !25
  %40 = load ptr, ptr %4, align 8, !tbaa !25
  %41 = call ptr @sort_ref_list__get_next(ptr noundef %40)
  store ptr %41, ptr %4, align 8, !tbaa !25
  %42 = load ptr, ptr %4, align 8, !tbaa !25
  %43 = icmp ne ptr %42, null
  br i1 %43, label %48, label %44

44:                                               ; preds = %38
  %45 = load ptr, ptr %8, align 8, !tbaa !25
  %46 = load ptr, ptr %5, align 8, !tbaa !25
  call void @sort_ref_list__set_next(ptr noundef %45, ptr noundef %46)
  %47 = load ptr, ptr %7, align 8, !tbaa !25
  call void @llvm.lifetime.end.p0(i64 4, ptr %9) #11
  call void @llvm.lifetime.end.p0(i64 8, ptr %8) #11
  call void @llvm.lifetime.end.p0(i64 8, ptr %7) #11
  ret ptr %47

48:                                               ; preds = %38
  br label %49

49:                                               ; preds = %48
  %50 = load ptr, ptr %6, align 8, !tbaa !106
  %51 = load ptr, ptr %4, align 8, !tbaa !25
  %52 = load ptr, ptr %5, align 8, !tbaa !25
  %53 = call i32 %50(ptr noundef %51, ptr noundef %52)
  %54 = load i32, ptr %9, align 4, !tbaa !19
  %55 = icmp slt i32 %53, %54
  br i1 %55, label %38, label %56, !llvm.loop !183

56:                                               ; preds = %49
  %57 = load ptr, ptr %8, align 8, !tbaa !25
  %58 = load ptr, ptr %5, align 8, !tbaa !25
  call void @sort_ref_list__set_next(ptr noundef %57, ptr noundef %58)
  %59 = load i32, ptr %9, align 4, !tbaa !19
  %60 = xor i32 %59, 1
  store i32 %60, ptr %9, align 4, !tbaa !19
  br label %61

61:                                               ; preds = %56
  call void @llvm.lifetime.start.p0(i64 8, ptr %13) #11
  store ptr %4, ptr %13, align 8, !tbaa !106
  call void @llvm.lifetime.start.p0(i64 8, ptr %14) #11
  store ptr %5, ptr %14, align 8, !tbaa !106
  call void @llvm.lifetime.start.p0(i64 8, ptr %15) #11
  %62 = getelementptr inbounds [8 x i8], ptr %15, i64 0, i64 0
  %63 = load ptr, ptr %13, align 8, !tbaa !106
  call void @llvm.memcpy.p0.p0.i64(ptr align 1 %62, ptr align 1 %63, i64 8, i1 false)
  %64 = load ptr, ptr %13, align 8, !tbaa !106
  %65 = load ptr, ptr %14, align 8, !tbaa !106
  call void @llvm.memcpy.p0.p0.i64(ptr align 1 %64, ptr align 1 %65, i64 8, i1 false)
  %66 = load ptr, ptr %14, align 8, !tbaa !106
  %67 = getelementptr inbounds [8 x i8], ptr %15, i64 0, i64 0
  call void @llvm.memcpy.p0.p0.i64(ptr align 1 %66, ptr align 1 %67, i64 8, i1 false)
  call void @llvm.lifetime.end.p0(i64 8, ptr %15) #11
  call void @llvm.lifetime.end.p0(i64 8, ptr %14) #11
  call void @llvm.lifetime.end.p0(i64 8, ptr %13) #11
  br label %68

68:                                               ; preds = %61
  br label %69

69:                                               ; preds = %68
  br label %37
}

; Function Attrs: inlinehint nounwind uwtable
define internal void @sort_ref_list__set_next(ptr noundef %0, ptr noundef %1) #5 {
  %3 = alloca ptr, align 8
  %4 = alloca ptr, align 8
  store ptr %0, ptr %3, align 8, !tbaa !25
  store ptr %1, ptr %4, align 8, !tbaa !25
  %5 = load ptr, ptr %4, align 8, !tbaa !25
  %6 = load ptr, ptr %3, align 8, !tbaa !25
  %7 = getelementptr inbounds nuw %struct.ref, ptr %6, i32 0, i32 0
  store ptr %5, ptr %7, align 8, !tbaa !25
  ret void
}

; Function Attrs: inlinehint nounwind uwtable
define internal ptr @sort_ref_list__get_next(ptr noundef %0) #5 {
  %2 = alloca ptr, align 8
  store ptr %0, ptr %2, align 8, !tbaa !25
  %3 = load ptr, ptr %2, align 8, !tbaa !25
  %4 = getelementptr inbounds nuw %struct.ref, ptr %3, i32 0, i32 0
  %5 = load ptr, ptr %4, align 8, !tbaa !25
  ret ptr %5
}

; Function Attrs: nounwind uwtable
define internal void @sort_ref_list(ptr noundef %0, ptr noundef %1) #0 {
  %3 = alloca ptr, align 8
  %4 = alloca ptr, align 8
  %5 = alloca ptr, align 8
  %6 = alloca [64 x ptr], align 16
  %7 = alloca i64, align 8
  %8 = alloca i32, align 4
  %9 = alloca i32, align 4
  %10 = alloca i64, align 8
  %11 = alloca ptr, align 8
  store ptr %0, ptr %3, align 8, !tbaa !27
  store ptr %1, ptr %4, align 8, !tbaa !106
  call void @llvm.lifetime.start.p0(i64 8, ptr %5) #11
  %12 = load ptr, ptr %3, align 8, !tbaa !27
  %13 = load ptr, ptr %12, align 8, !tbaa !25
  store ptr %13, ptr %5, align 8, !tbaa !25
  call void @llvm.lifetime.start.p0(i64 512, ptr %6) #11
  call void @llvm.lifetime.start.p0(i64 8, ptr %7) #11
  store i64 0, ptr %7, align 8, !tbaa !96
  %14 = load ptr, ptr %5, align 8, !tbaa !25
  %15 = icmp ne ptr %14, null
  br i1 %15, label %17, label %16

16:                                               ; preds = %2
  store i32 1, ptr %8, align 4
  br label %68

17:                                               ; preds = %2
  br label %18

18:                                               ; preds = %67, %17
  call void @llvm.lifetime.start.p0(i64 4, ptr %9) #11
  call void @llvm.lifetime.start.p0(i64 8, ptr %10) #11
  call void @llvm.lifetime.start.p0(i64 8, ptr %11) #11
  %19 = load ptr, ptr %5, align 8, !tbaa !25
  %20 = call ptr @sort_ref_list__get_next(ptr noundef %19)
  store ptr %20, ptr %11, align 8, !tbaa !25
  %21 = load ptr, ptr %11, align 8, !tbaa !25
  %22 = icmp ne ptr %21, null
  br i1 %22, label %23, label %25

23:                                               ; preds = %18
  %24 = load ptr, ptr %5, align 8, !tbaa !25
  call void @sort_ref_list__set_next(ptr noundef %24, ptr noundef null)
  br label %25

25:                                               ; preds = %23, %18
  store i32 0, ptr %9, align 4, !tbaa !19
  %26 = load i64, ptr %7, align 8, !tbaa !96
  store i64 %26, ptr %10, align 8, !tbaa !96
  br label %27

27:                                               ; preds = %52, %25
  %28 = load i64, ptr %10, align 8, !tbaa !96
  %29 = and i64 %28, 1
  %30 = icmp ne i64 %29, 0
  br i1 %30, label %31, label %39

31:                                               ; preds = %27
  %32 = load i32, ptr %9, align 4, !tbaa !19
  %33 = sext i32 %32 to i64
  %34 = getelementptr inbounds [64 x ptr], ptr %6, i64 0, i64 %33
  %35 = load ptr, ptr %34, align 8, !tbaa !25
  %36 = load ptr, ptr %5, align 8, !tbaa !25
  %37 = load ptr, ptr %4, align 8, !tbaa !106
  %38 = call ptr @sort_ref_list__merge(ptr noundef %35, ptr noundef %36, ptr noundef %37)
  store ptr %38, ptr %5, align 8, !tbaa !25
  br label %51

39:                                               ; preds = %27
  %40 = load ptr, ptr %11, align 8, !tbaa !25
  %41 = icmp ne ptr %40, null
  br i1 %41, label %42, label %43

42:                                               ; preds = %39
  br label %57

43:                                               ; preds = %39
  %44 = load i64, ptr %10, align 8, !tbaa !96
  %45 = icmp ne i64 %44, 0
  br i1 %45, label %49, label %46

46:                                               ; preds = %43
  %47 = load ptr, ptr %5, align 8, !tbaa !25
  %48 = load ptr, ptr %3, align 8, !tbaa !27
  store ptr %47, ptr %48, align 8, !tbaa !25
  store i32 1, ptr %8, align 4
  br label %65

49:                                               ; preds = %43
  br label %50

50:                                               ; preds = %49
  br label %51

51:                                               ; preds = %50, %31
  br label %52

52:                                               ; preds = %51
  %53 = load i32, ptr %9, align 4, !tbaa !19
  %54 = add nsw i32 %53, 1
  store i32 %54, ptr %9, align 4, !tbaa !19
  %55 = load i64, ptr %10, align 8, !tbaa !96
  %56 = lshr i64 %55, 1
  store i64 %56, ptr %10, align 8, !tbaa !96
  br label %27

57:                                               ; preds = %42
  %58 = load i64, ptr %7, align 8, !tbaa !96
  %59 = add i64 %58, 1
  store i64 %59, ptr %7, align 8, !tbaa !96
  %60 = load ptr, ptr %5, align 8, !tbaa !25
  %61 = load i32, ptr %9, align 4, !tbaa !19
  %62 = sext i32 %61 to i64
  %63 = getelementptr inbounds [64 x ptr], ptr %6, i64 0, i64 %62
  store ptr %60, ptr %63, align 8, !tbaa !25
  %64 = load ptr, ptr %11, align 8, !tbaa !25
  store ptr %64, ptr %5, align 8, !tbaa !25
  store i32 0, ptr %8, align 4
  br label %65

65:                                               ; preds = %57, %46
  call void @llvm.lifetime.end.p0(i64 8, ptr %11) #11
  call void @llvm.lifetime.end.p0(i64 8, ptr %10) #11
  call void @llvm.lifetime.end.p0(i64 4, ptr %9) #11
  %66 = load i32, ptr %8, align 4
  switch i32 %66, label %68 [
    i32 0, label %67
  ]

67:                                               ; preds = %65
  br label %18

68:                                               ; preds = %65, %16
  call void @llvm.lifetime.end.p0(i64 8, ptr %7) #11
  call void @llvm.lifetime.end.p0(i64 512, ptr %6) #11
  call void @llvm.lifetime.end.p0(i64 8, ptr %5) #11
  ret void
}