; Function Attrs: nofree nounwind memory(readwrite, inaccessiblemem: none) uwtable
define internal fastcc void @sort_ref_list(ptr noundef nonnull captures(none) %0) unnamed_addr #11 {
  %2 = alloca [64 x ptr], align 16
  %3 = load ptr, ptr %0, align 8, !tbaa !22
  call void @llvm.lifetime.start.p0(i64 512, ptr nonnull %2) #20
  %.not = icmp eq ptr %3, null
  br i1 %.not, label %47, label %.preheader.preheader

.preheader.preheader:                             ; preds = %1
  %.0.val30 = load ptr, ptr %3, align 8, !tbaa !22
  %.not27.not31 = icmp eq ptr %.0.val30, null
  br i1 %.not27.not31, label %.split.us.preheader, label %.split

.split.us.preheader:                              ; preds = %._crit_edge, %.preheader.preheader
  %.020.us.ph = phi i64 [ 0, %.preheader.preheader ], [ %45, %._crit_edge ]
  %.1.us.ph = phi ptr [ %3, %.preheader.preheader ], [ %.0.val34, %._crit_edge ]
  br label %.split.us

.split:                                           ; preds = %.preheader.preheader, %._crit_edge
  %.0.val34 = phi ptr [ %.0.val, %._crit_edge ], [ %.0.val30, %.preheader.preheader ]
  %.033 = phi ptr [ %.0.val34, %._crit_edge ], [ %3, %.preheader.preheader ]
  %.02332 = phi i64 [ %45, %._crit_edge ], [ 0, %.preheader.preheader ]
  store ptr null, ptr %.033, align 8, !tbaa !22
  %4 = and i64 %.02332, 1
  %.not289 = icmp eq i64 %4, 0
  br i1 %.not289, label %._crit_edge, label %.lr.ph

.split.us:                                        ; preds = %.split.us.preheader, %24
  %indvars.iv19 = phi i64 [ %indvars.iv.next20, %24 ], [ 0, %.split.us.preheader ]
  %.020.us = phi i64 [ %25, %24 ], [ %.020.us.ph, %.split.us.preheader ]
  %.1.us = phi ptr [ %.3.us, %24 ], [ %.1.us.ph, %.split.us.preheader ]
  %5 = and i64 %.020.us, 1
  %.not28.us = icmp eq i64 %5, 0
  br i1 %.not28.us, label %23, label %6

6:                                                ; preds = %.split.us
  %7 = getelementptr inbounds nuw [64 x ptr], ptr %2, i64 0, i64 %indvars.iv19
  %8 = load ptr, ptr %7, align 8, !tbaa !22
  %9 = getelementptr inbounds nuw i8, ptr %8, i64 176
  %10 = getelementptr inbounds nuw i8, ptr %.1.us, i64 176
  %11 = tail call i32 @strcmp(ptr noundef nonnull readonly dereferenceable(1) %9, ptr noundef nonnull readonly dereferenceable(1) %10) #19
  %12 = icmp slt i32 %11, 1
  %13 = zext i1 %12 to i32
  %spec.select.i.us = select i1 %12, ptr %.1.us, ptr %8
  %spec.select35.i.us = select i1 %12, ptr %8, ptr %.1.us
  br label %14

14:                                               ; preds = %21, %6
  %.133.i.us = phi ptr [ %spec.select.i.us, %6 ], [ %.2.val.i.us, %21 ]
  %.1.i.us = phi ptr [ %spec.select35.i.us, %6 ], [ %.133.i.us, %21 ]
  %.018.i.us = phi i32 [ %13, %6 ], [ %22, %21 ]
  %15 = getelementptr inbounds nuw i8, ptr %.133.i.us, i64 176
  br label %16

16:                                               ; preds = %17, %14
  %.2.i.us = phi ptr [ %.1.i.us, %14 ], [ %.2.val.i.us, %17 ]
  %.2.val.i.us = load ptr, ptr %.2.i.us, align 8, !tbaa !22
  %.not.i.us = icmp eq ptr %.2.val.i.us, null
  br i1 %.not.i.us, label %sort_ref_list__merge.exit.us, label %17

17:                                               ; preds = %16
  %18 = getelementptr inbounds nuw i8, ptr %.2.val.i.us, i64 176
  %19 = tail call i32 @strcmp(ptr noundef nonnull readonly dereferenceable(1) %18, ptr noundef nonnull readonly dereferenceable(1) %15) #19
  %20 = icmp slt i32 %19, %.018.i.us
  br i1 %20, label %16, label %21, !llvm.loop !152

21:                                               ; preds = %17
  store ptr %.133.i.us, ptr %.2.i.us, align 8, !tbaa !22
  %22 = xor i32 %.018.i.us, 1
  br label %14

sort_ref_list__merge.exit.us:                     ; preds = %16
  store ptr %.133.i.us, ptr %.2.i.us, align 8, !tbaa !22
  br label %24

23:                                               ; preds = %.split.us
  %.not29.us = icmp eq i64 %.020.us, 0
  br i1 %.not29.us, label %.thread, label %24

24:                                               ; preds = %23, %sort_ref_list__merge.exit.us
  %.3.us = phi ptr [ %spec.select35.i.us, %sort_ref_list__merge.exit.us ], [ %.1.us, %23 ]
  %indvars.iv.next20 = add nuw nsw i64 %indvars.iv19, 1
  %25 = lshr i64 %.020.us, 1
  br label %.split.us

.lr.ph:                                           ; preds = %.split, %sort_ref_list__merge.exit
  %indvars.iv = phi i64 [ %indvars.iv.next, %sort_ref_list__merge.exit ], [ 0, %.split ]
  %.112 = phi ptr [ %spec.select35.i, %sort_ref_list__merge.exit ], [ %.033, %.split ]
  %.02011 = phi i64 [ %42, %sort_ref_list__merge.exit ], [ %.02332, %.split ]
  %26 = getelementptr inbounds nuw [64 x ptr], ptr %2, i64 0, i64 %indvars.iv
  %27 = load ptr, ptr %26, align 8, !tbaa !22
  %28 = getelementptr inbounds nuw i8, ptr %27, i64 176
  %29 = getelementptr inbounds nuw i8, ptr %.112, i64 176
  %30 = tail call i32 @strcmp(ptr noundef nonnull readonly dereferenceable(1) %28, ptr noundef nonnull readonly dereferenceable(1) %29) #19
  %31 = icmp slt i32 %30, 1
  %32 = zext i1 %31 to i32
  %spec.select.i = select i1 %31, ptr %.112, ptr %27
  %spec.select35.i = select i1 %31, ptr %27, ptr %.112
  br label %33

33:                                               ; preds = %40, %.lr.ph
  %.133.i = phi ptr [ %spec.select.i, %.lr.ph ], [ %.2.val.i, %40 ]
  %.1.i = phi ptr [ %spec.select35.i, %.lr.ph ], [ %.133.i, %40 ]
  %.018.i = phi i32 [ %32, %.lr.ph ], [ %41, %40 ]
  %34 = getelementptr inbounds nuw i8, ptr %.133.i, i64 176
  br label %35

35:                                               ; preds = %36, %33
  %.2.i = phi ptr [ %.1.i, %33 ], [ %.2.val.i, %36 ]
  %.2.val.i = load ptr, ptr %.2.i, align 8, !tbaa !22
  %.not.i = icmp eq ptr %.2.val.i, null
  br i1 %.not.i, label %sort_ref_list__merge.exit, label %36

36:                                               ; preds = %35
  %37 = getelementptr inbounds nuw i8, ptr %.2.val.i, i64 176
  %38 = tail call i32 @strcmp(ptr noundef nonnull readonly dereferenceable(1) %37, ptr noundef nonnull readonly dereferenceable(1) %34) #19
  %39 = icmp slt i32 %38, %.018.i
  br i1 %39, label %35, label %40, !llvm.loop !152

40:                                               ; preds = %36
  store ptr %.133.i, ptr %.2.i, align 8, !tbaa !22
  %41 = xor i32 %.018.i, 1
  br label %33

sort_ref_list__merge.exit:                        ; preds = %35
  store ptr %.133.i, ptr %.2.i, align 8, !tbaa !22
  %indvars.iv.next = add nuw nsw i64 %indvars.iv, 1
  %42 = lshr i64 %.02011, 1
  %43 = and i64 %.02011, 2
  %.not28 = icmp eq i64 %43, 0
  br i1 %.not28, label %._crit_edge.loopexit, label %.lr.ph

._crit_edge.loopexit:                             ; preds = %sort_ref_list__merge.exit
  %44 = and i64 %indvars.iv.next, 4294967295
  br label %._crit_edge

._crit_edge:                                      ; preds = %._crit_edge.loopexit, %.split
  %.021.lcssa8 = phi i64 [ 0, %.split ], [ %44, %._crit_edge.loopexit ]
  %.1.lcssa7 = phi ptr [ %.033, %.split ], [ %spec.select35.i, %._crit_edge.loopexit ]
  %45 = add i64 %.02332, 1
  %46 = getelementptr inbounds nuw [64 x ptr], ptr %2, i64 0, i64 %.021.lcssa8
  store ptr %.1.lcssa7, ptr %46, align 8, !tbaa !22
  %.0.val = load ptr, ptr %.0.val34, align 8, !tbaa !22
  %.not27.not = icmp eq ptr %.0.val, null
  br i1 %.not27.not, label %.split.us.preheader, label %.split

.thread:                                          ; preds = %23
  store ptr %.1.us, ptr %0, align 8, !tbaa !22
  br label %47

47:                                               ; preds = %.thread, %1
  call void @llvm.lifetime.end.p0(i64 512, ptr nonnull %2) #20
  ret void
}